target datalayout = "e-m:e-p270:32:32-p271:32:32-p272:64:64-i64:64-i128:128-f80:128-n8:16:32:64-S128"
target triple = "x86_64-pc-linux-gnu"

; Function Attrs: nounwind uwtable
define dso_local zeroext i1 @str_has_suffix(ptr noundef %0, ptr noundef %1) #0 {
  %3 = alloca i1, align 1
  %4 = alloca ptr, align 8
  %5 = alloca ptr, align 8
  %6 = alloca i64, align 8
  %7 = alloca i64, align 8
  store ptr %0, ptr %4, align 8
  store ptr %1, ptr %5, align 8
  %8 = load ptr, ptr %4, align 8
  %9 = call i64 @strlen(ptr noundef %8) #7
  store i64 %9, ptr %6, align 8
  %10 = load ptr, ptr %5, align 8
  %11 = call i64 @strlen(ptr noundef %10) #7
  store i64 %11, ptr %7, align 8
  %12 = load i64, ptr %6, align 8
  %13 = load i64, ptr %7, align 8
  %14 = icmp ule i64 %12, %13
  br i1 %14, label %15, label %16

15:                                               ; preds = %2
  store i1 false, ptr %3, align 1
  br label %27

16:                                               ; preds = %2
  %17 = load ptr, ptr %4, align 8
  %18 = load i64, ptr %6, align 8
  %19 = getelementptr inbounds i8, ptr %17, i64 %18
  %20 = load i64, ptr %7, align 8
  %21 = sub i64 0, %20
  %22 = getelementptr inbounds i8, ptr %19, i64 %21
  %23 = load ptr, ptr %5, align 8
  %24 = load i64, ptr %7, align 8
  %25 = call i32 @memcmp(ptr noundef %22, ptr noundef %23, i64 noundef %24) #7
  %26 = icmp eq i32 %25, 0
  store i1 %26, ptr %3, align 1
  br label %27

27:                                               ; preds = %16, %15
  %28 = load i1, ptr %3, align 1
  ret i1 %28
}