; Function Attrs: mustprogress nofree nounwind willreturn memory(argmem: read) uwtable
define dso_local zeroext i1 @str_has_suffix(ptr nocapture noundef readonly %0, ptr nocapture noundef readonly %1) local_unnamed_addr #5 {
  %3 = tail call i64 @strlen(ptr noundef nonnull dereferenceable(1) %0) #20
  %4 = tail call i64 @strlen(ptr noundef nonnull dereferenceable(1) %1) #20
  %.not = icmp ugt i64 %3, %4
  br i1 %.not, label %5, label %10

5:                                                ; preds = %2
  %6 = getelementptr inbounds i8, ptr %0, i64 %3
  %7 = sub i64 0, %4
  %8 = getelementptr inbounds i8, ptr %6, i64 %7
  %bcmp = tail call i32 @bcmp(ptr nonnull %8, ptr %1, i64 %4)
  %9 = icmp eq i32 %bcmp, 0
  br label %10

10:                                               ; preds = %2, %5
  %.0 = phi i1 [ %9, %5 ], [ false, %2 ]
  ret i1 %.0
}